; Function Attrs: nounwind uwtable
define internal void @fn_error_va_fl(ptr noundef %0, i32 noundef %1, ptr noundef %2, ptr noundef %3) #0 {
  %5 = alloca [1 x %struct.__va_list_tag], align 16
  %6 = alloca %struct.strbuf, align 8
  call void @llvm.lifetime.start.p0(i64 24, ptr nonnull %6) #7
  call void @llvm.memcpy.p0.p0.i64(ptr noundef nonnull align 8 dereferenceable(24) %6, ptr noundef nonnull align 8 dereferenceable(24) @__const.fn_counter.buf_payload, i64 24, i1 false)
  call void @strbuf_add(ptr noundef nonnull %6, ptr noundef nonnull @.str.10, i64 noundef 5) #7
  %.not = icmp eq ptr %2, null
  br i1 %.not, label %maybe_append_string_va.exit, label %7

7:                                                ; preds = %4
  %8 = load i8, ptr %2, align 1, !tbaa !4
  %.not5 = icmp eq i8 %8, 0
  br i1 %.not5, label %maybe_append_string_va.exit, label %9

9:                                                ; preds = %7
  %10 = load i64, ptr %6, align 8, !tbaa !9
  %.not.i.i = icmp eq i64 %10, 0
  br i1 %.not.i.i, label %strbuf_avail.exit.thread.i, label %strbuf_avail.exit.i

strbuf_avail.exit.i:                              ; preds = %9
  %11 = getelementptr inbounds nuw i8, ptr %6, i64 8
  %12 = load i64, ptr %11, align 8, !tbaa !14
  %.neg.i = add i64 %12, 1
  %.not.i = icmp eq i64 %10, %.neg.i
  br i1 %.not.i, label %strbuf_avail.exit.thread.i, label %13

strbuf_avail.exit.thread.i:                       ; preds = %strbuf_avail.exit.i, %9
  call void @strbuf_grow(ptr noundef nonnull %6, i64 noundef 1) #7
  %.phi.trans.insert.i = getelementptr inbounds nuw i8, ptr %6, i64 8
  %.pre.i = load i64, ptr %.phi.trans.insert.i, align 8, !tbaa !14
  %.pre7.i = add i64 %.pre.i, 1
  br label %13

13:                                               ; preds = %strbuf_avail.exit.thread.i, %strbuf_avail.exit.i
  %.pre-phi.i = phi i64 [ %.pre7.i, %strbuf_avail.exit.thread.i ], [ %.neg.i, %strbuf_avail.exit.i ]
  %14 = phi i64 [ %.pre.i, %strbuf_avail.exit.thread.i ], [ %12, %strbuf_avail.exit.i ]
  %15 = getelementptr inbounds nuw i8, ptr %6, i64 16
  %16 = load ptr, ptr %15, align 8, !tbaa !15
  %17 = getelementptr inbounds nuw i8, ptr %6, i64 8
  store i64 %.pre-phi.i, ptr %17, align 8, !tbaa !14
  %18 = getelementptr inbounds nuw i8, ptr %16, i64 %14
  store i8 32, ptr %18, align 1, !tbaa !4
  %19 = load ptr, ptr %15, align 8, !tbaa !15
  %20 = load i64, ptr %17, align 8, !tbaa !14
  %21 = getelementptr inbounds nuw i8, ptr %19, i64 %20
  store i8 0, ptr %21, align 1, !tbaa !4
  %22 = load i8, ptr %2, align 1, !tbaa !4
  %.not5.i = icmp eq i8 %22, 0
  br i1 %.not5.i, label %maybe_append_string_va.exit, label %23

23:                                               ; preds = %13
  call void @llvm.lifetime.start.p0(i64 24, ptr nonnull %5) #7
  call void @llvm.va_copy.p0(ptr nonnull %5, ptr %3)
  call void @strbuf_vaddf(ptr noundef nonnull %6, ptr noundef nonnull %2, ptr noundef nonnull %5) #7
  call void @llvm.va_end.p0(ptr nonnull %5)
  call void @llvm.lifetime.end.p0(i64 24, ptr nonnull %5) #7
  br label %maybe_append_string_va.exit

maybe_append_string_va.exit:                      ; preds = %23, %13, %7, %4
  call fastcc void @normal_io_write_fl(ptr noundef %0, i32 noundef %1, ptr noundef %6)
  call void @strbuf_release(ptr noundef nonnull %6) #7
  call void @llvm.lifetime.end.p0(i64 24, ptr nonnull %6) #7
  ret void
}